target datalayout = "e-m:e-p270:32:32-p271:32:32-p272:64:64-i64:64-i128:128-f80:128-n8:16:32:64-S128"
target triple = "x86_64-unknown-linux-gnu"

%class.ref_vector = type { %class.ref_vector_core }
%class.ref_vector_core = type { %class.ref_manager_wrapper, %class.ptr_vector }
%class.ref_manager_wrapper = type { ptr }
%class.ptr_vector = type { %class.vector }
%class.vector = type { ptr }
%class.obj_map.36 = type { %class.core_hashtable.37 }
%class.core_hashtable.37 = type <{ ptr, i32, i32, i32, [4 x i8] }>
%class.params_ref = type { ptr }
%"class.qe::expr_quant_elim" = type { ptr, ptr, %class.params_ref, %class.ref_vector, %class.obj_map.36, ptr, ptr }

; Function Attrs: mustprogress uwtable
define hidden void @_ZNK2qe15expr_quant_elim18collect_statisticsER10statistics(ptr noundef nonnull align 8 dereferenceable(80) %this, ptr noundef nonnull align 8 dereferenceable(16) %st) #5 align 2 {
entry:
  %this.addr = alloca ptr, align 8
  %st.addr = alloca ptr, align 8
  store ptr %this, ptr %this.addr, align 8
  store ptr %st, ptr %st.addr, align 8
  %this1 = load ptr, ptr %this.addr, align 8
  %m_qe = getelementptr inbounds %"class.qe::expr_quant_elim", ptr %this1, i32 0, i32 5
  %0 = load ptr, ptr %m_qe, align 8
  %tobool = icmp ne ptr %0, null
  br i1 %tobool, label %if.then, label %if.end

if.then:                                          ; preds = %entry
  %m_qe2 = getelementptr inbounds %"class.qe::expr_quant_elim", ptr %this1, i32 0, i32 5
  %1 = load ptr, ptr %m_qe2, align 8
  %2 = load ptr, ptr %st.addr, align 8
  %vtable = load ptr, ptr %1, align 8
  %vfn = getelementptr inbounds ptr, ptr %vtable, i64 4
  %3 = load ptr, ptr %vfn, align 8
  call void %3(ptr noundef nonnull align 8 dereferenceable(8) %1, ptr noundef nonnull align 8 dereferenceable(16) %2)
  br label %if.end

if.end:                                           ; preds = %if.then, %entry
  ret void
}