; Function Attrs: mustprogress uwtable
define hidden void @_ZNK2qe15expr_quant_elim18collect_statisticsER10statistics(ptr nocapture noundef nonnull readonly align 8 dereferenceable(80) %this, ptr noundef nonnull align 8 dereferenceable(16) %st) local_unnamed_addr #3 align 2 {
entry:
  %m_qe = getelementptr inbounds i8, ptr %this, i64 64
  %0 = load ptr, ptr %m_qe, align 8
  %tobool.not = icmp eq ptr %0, null
  br i1 %tobool.not, label %if.end, label %if.then

if.then:                                          ; preds = %entry
  %vtable = load ptr, ptr %0, align 8
  %vfn = getelementptr inbounds i8, ptr %vtable, i64 32
  %1 = load ptr, ptr %vfn, align 8
  tail call void %1(ptr noundef nonnull align 8 dereferenceable(8) %0, ptr noundef nonnull align 8 dereferenceable(16) %st)
  br label %if.end

if.end:                                           ; preds = %if.then, %entry
  ret void
}